target datalayout = "e-m:e-p270:32:32-p271:32:32-p272:64:64-i64:64-i128:128-f80:128-n8:16:32:64-S128"
target triple = "x86_64-pc-linux-gnu"

; Function Attrs: nounwind uwtable
define i32 @wolfSSL_SNI_GetFromBuffer(ptr noundef %0, i32 noundef %1, i8 noundef zeroext %2, ptr noundef %3, ptr noundef %4) #0 {
  %6 = alloca i32, align 4
  %7 = alloca ptr, align 8
  %8 = alloca i32, align 4
  %9 = alloca i8, align 1
  %10 = alloca ptr, align 8
  %11 = alloca ptr, align 8
  store ptr %0, ptr %7, align 8, !tbaa !21
  store i32 %1, ptr %8, align 4, !tbaa !7
  store i8 %2, ptr %9, align 1, !tbaa !20
  store ptr %3, ptr %10, align 8, !tbaa !21
  store ptr %4, ptr %11, align 8, !tbaa !92
  %12 = load ptr, ptr %7, align 8, !tbaa !21
  %13 = icmp ne ptr %12, null
  br i1 %13, label %14, label %34

14:                                               ; preds = %5
  %15 = load i32, ptr %8, align 4, !tbaa !7
  %16 = icmp ugt i32 %15, 0
  br i1 %16, label %17, label %34

17:                                               ; preds = %14
  %18 = load ptr, ptr %10, align 8, !tbaa !21
  %19 = icmp ne ptr %18, null
  br i1 %19, label %20, label %34

20:                                               ; preds = %17
  %21 = load ptr, ptr %11, align 8, !tbaa !92
  %22 = icmp ne ptr %21, null
  br i1 %22, label %23, label %34

23:                                               ; preds = %20
  %24 = load ptr, ptr %11, align 8, !tbaa !92
  %25 = load i32, ptr %24, align 4, !tbaa !7
  %26 = icmp ugt i32 %25, 0
  br i1 %26, label %27, label %34

27:                                               ; preds = %23
  %28 = load ptr, ptr %7, align 8, !tbaa !21
  %29 = load i32, ptr %8, align 4, !tbaa !7
  %30 = load i8, ptr %9, align 1, !tbaa !20
  %31 = load ptr, ptr %10, align 8, !tbaa !21
  %32 = load ptr, ptr %11, align 8, !tbaa !92
  %33 = call i32 @TLSX_SNI_GetFromBuffer(ptr noundef %28, i32 noundef %29, i8 noundef zeroext %30, ptr noundef %31, ptr noundef %32)
  store i32 %33, ptr %6, align 4
  br label %35

34:                                               ; preds = %23, %20, %17, %14, %5
  store i32 -173, ptr %6, align 4
  br label %35

35:                                               ; preds = %34, %27
  %36 = load i32, ptr %6, align 4
  ret i32 %36
}