; Function Attrs: nounwind uwtable
define i32 @wolfSSL_SNI_GetFromBuffer(ptr noundef %0, i32 noundef %1, i8 noundef zeroext %2, ptr noundef %3, ptr noundef %4) local_unnamed_addr #0 {
  %6 = icmp ne ptr %0, null
  %7 = icmp ne i32 %1, 0
  %or.cond = and i1 %6, %7
  %8 = icmp ne ptr %3, null
  %or.cond3 = and i1 %or.cond, %8
  %9 = icmp ne ptr %4, null
  %or.cond5 = and i1 %or.cond3, %9
  br i1 %or.cond5, label %10, label %14

10:                                               ; preds = %5
  %11 = load i32, ptr %4, align 4, !tbaa !3
  %.not = icmp eq i32 %11, 0
  br i1 %.not, label %14, label %12

12:                                               ; preds = %10
  %13 = tail call i32 @TLSX_SNI_GetFromBuffer(ptr noundef nonnull %0, i32 noundef %1, i8 noundef zeroext %2, ptr noundef nonnull %3, ptr noundef nonnull %4) #22
  br label %14

14:                                               ; preds = %5, %10, %12
  %.0 = phi i32 [ %13, %12 ], [ -173, %10 ], [ -173, %5 ]
  ret i32 %.0
}